; ModuleID = 'source-C-CXX/9/114.cpp'
source_filename = "source-C-CXX/9/114.cpp"
target datalayout = "e-m:e-p270:32:32-p271:32:32-p272:64:64-i64:64-f80:128-n8:16:32:64-S128"
target triple = "x86_64-pc-linux-gnu"

%"class.std::ios_base::Init" = type { i8 }
%"class.std::basic_istream" = type { i32 (...)**, i64, %"class.std::basic_ios" }
%"class.std::basic_ios" = type { %"class.std::ios_base", %"class.std::basic_ostream"*, i8, i8, %"class.std::basic_streambuf"*, %"class.std::ctype"*, %"class.std::num_put"*, %"class.std::num_get"* }
%"class.std::ios_base" = type { i32 (...)**, i64, i64, i32, i32, i32, %"struct.std::ios_base::_Callback_list"*, %"struct.std::ios_base::_Words", [8 x %"struct.std::ios_base::_Words"], i32, %"struct.std::ios_base::_Words"*, %"class.std::locale" }
%"struct.std::ios_base::_Callback_list" = type { %"struct.std::ios_base::_Callback_list"*, void (i32, %"class.std::ios_base"*, i32)*, i32, i32 }
%"struct.std::ios_base::_Words" = type { i8*, i64 }
%"class.std::locale" = type { %"class.std::locale::_Impl"* }
%"class.std::locale::_Impl" = type { i32, %"class.std::locale::facet"**, i64, %"class.std::locale::facet"**, i8** }
%"class.std::locale::facet" = type <{ i32 (...)**, i32, [4 x i8] }>
%"class.std::basic_ostream" = type { i32 (...)**, %"class.std::basic_ios" }
%"class.std::basic_streambuf" = type { i32 (...)**, i8*, i8*, i8*, i8*, i8*, i8*, %"class.std::locale" }
%"class.std::ctype" = type <{ %"class.std::locale::facet.base", [4 x i8], %struct.__locale_struct*, i8, [7 x i8], i32*, i32*, i16*, i8, [256 x i8], [256 x i8], i8, [6 x i8] }>
%"class.std::locale::facet.base" = type <{ i32 (...)**, i32 }>
%struct.__locale_struct = type { [13 x %struct.__locale_data*], i16*, i32*, i32*, [13 x i8*] }
%struct.__locale_data = type opaque
%"class.std::num_put" = type { %"class.std::locale::facet.base", [4 x i8] }
%"class.std::num_get" = type { %"class.std::locale::facet.base", [4 x i8] }

@_ZStL8__ioinit = internal global %"class.std::ios_base::Init" zeroinitializer, align 1
@__dso_handle = external hidden global i8
@k = dso_local global i32 0, align 4
@a = dso_local global [25 x i32] zeroinitializer, align 16
@b = dso_local local_unnamed_addr global [25 x i32] zeroinitializer, align 16
@_ZSt3cin = external global %"class.std::basic_istream", align 8
@_ZSt4cout = external global %"class.std::basic_ostream", align 8
@llvm.global_ctors = appending global [1 x { i32, void ()*, i8* }] [{ i32, void ()*, i8* } { i32 65535, void ()* @_GLOBAL__sub_I_114.cpp, i8* null }]

declare void @_ZNSt8ios_base4InitC1Ev(%"class.std::ios_base::Init"* nonnull align 1 dereferenceable(1)) unnamed_addr #0

; Function Attrs: nounwind
declare void @_ZNSt8ios_base4InitD1Ev(%"class.std::ios_base::Init"* nonnull align 1 dereferenceable(1)) unnamed_addr #1

; Function Attrs: nofree nounwind
declare i32 @__cxa_atexit(void (i8*)*, i8*, i8*) local_unnamed_addr #2

; Function Attrs: mustprogress norecurse sspstrong uwtable
define dso_local i32 @main() local_unnamed_addr #3 {
  %1 = tail call nonnull align 8 dereferenceable(16) %"class.std::basic_istream"* @_ZNSirsERi(%"class.std::basic_istream"* nonnull align 8 dereferenceable(16) @_ZSt3cin, i32* nonnull align 4 dereferenceable(4) @k)
  %2 = load i32, i32* @k, align 4, !tbaa !5
  %3 = icmp sgt i32 %2, 0
  br i1 %3, label %8, label %142

4:                                                ; preds = %8
  %5 = icmp sgt i32 %13, 0
  br i1 %5, label %6, label %142

6:                                                ; preds = %4
  %7 = zext i32 %13 to i64
  br label %86

8:                                                ; preds = %0, %8
  %9 = phi i64 [ %12, %8 ], [ 0, %0 ]
  %10 = getelementptr inbounds [25 x i32], [25 x i32]* @a, i64 0, i64 %9
  %11 = tail call nonnull align 8 dereferenceable(16) %"class.std::basic_istream"* @_ZNSirsERi(%"class.std::basic_istream"* nonnull align 8 dereferenceable(16) @_ZSt3cin, i32* nonnull align 4 dereferenceable(4) %10)
  %12 = add nuw nsw i64 %9, 1
  %13 = load i32, i32* @k, align 4, !tbaa !5
  %14 = sext i32 %13 to i64
  %15 = icmp slt i64 %12, %14
  br i1 %15, label %8, label %4, !llvm.loop !9

16:                                               ; preds = %130
  br i1 %5, label %17, label %142

17:                                               ; preds = %16
  %18 = zext i32 %13 to i64
  %19 = icmp ult i32 %13, 8
  br i1 %19, label %83, label %20

20:                                               ; preds = %17
  %21 = and i64 %7, 4294967288
  %22 = add nsw i64 %21, -8
  %23 = lshr exact i64 %22, 3
  %24 = add nuw nsw i64 %23, 1
  %25 = and i64 %24, 1
  %26 = icmp eq i64 %22, 0
  br i1 %26, label %58, label %27

27:                                               ; preds = %20
  %28 = and i64 %24, 4611686018427387902
  br label %29

29:                                               ; preds = %29, %27
  %30 = phi i64 [ 0, %27 ], [ %55, %29 ]
  %31 = phi <4 x i32> [ zeroinitializer, %27 ], [ %53, %29 ]
  %32 = phi <4 x i32> [ zeroinitializer, %27 ], [ %54, %29 ]
  %33 = phi i64 [ %28, %27 ], [ %56, %29 ]
  %34 = getelementptr inbounds [25 x i32], [25 x i32]* @b, i64 0, i64 %30
  %35 = bitcast i32* %34 to <4 x i32>*
  %36 = load <4 x i32>, <4 x i32>* %35, align 16, !tbaa !5
  %37 = getelementptr inbounds i32, i32* %34, i64 4
  %38 = bitcast i32* %37 to <4 x i32>*
  %39 = load <4 x i32>, <4 x i32>* %38, align 16, !tbaa !5
  %40 = icmp sgt <4 x i32> %31, %36
  %41 = icmp sgt <4 x i32> %32, %39
  %42 = select <4 x i1> %40, <4 x i32> %31, <4 x i32> %36
  %43 = select <4 x i1> %41, <4 x i32> %32, <4 x i32> %39
  %44 = or i64 %30, 8
  %45 = getelementptr inbounds [25 x i32], [25 x i32]* @b, i64 0, i64 %44
  %46 = bitcast i32* %45 to <4 x i32>*
  %47 = load <4 x i32>, <4 x i32>* %46, align 16, !tbaa !5
  %48 = getelementptr inbounds i32, i32* %45, i64 4
  %49 = bitcast i32* %48 to <4 x i32>*
  %50 = load <4 x i32>, <4 x i32>* %49, align 16, !tbaa !5
  %51 = icmp sgt <4 x i32> %42, %47
  %52 = icmp sgt <4 x i32> %43, %50
  %53 = select <4 x i1> %51, <4 x i32> %42, <4 x i32> %47
  %54 = select <4 x i1> %52, <4 x i32> %43, <4 x i32> %50
  %55 = add nuw i64 %30, 16
  %56 = add i64 %33, -2
  %57 = icmp eq i64 %56, 0
  br i1 %57, label %58, label %29, !llvm.loop !11

58:                                               ; preds = %29, %20
  %59 = phi <4 x i32> [ undef, %20 ], [ %53, %29 ]
  %60 = phi <4 x i32> [ undef, %20 ], [ %54, %29 ]
  %61 = phi i64 [ 0, %20 ], [ %55, %29 ]
  %62 = phi <4 x i32> [ zeroinitializer, %20 ], [ %53, %29 ]
  %63 = phi <4 x i32> [ zeroinitializer, %20 ], [ %54, %29 ]
  %64 = icmp eq i64 %25, 0
  br i1 %64, label %76, label %65

65:                                               ; preds = %58
  %66 = getelementptr inbounds [25 x i32], [25 x i32]* @b, i64 0, i64 %61
  %67 = bitcast i32* %66 to <4 x i32>*
  %68 = load <4 x i32>, <4 x i32>* %67, align 16, !tbaa !5
  %69 = getelementptr inbounds i32, i32* %66, i64 4
  %70 = bitcast i32* %69 to <4 x i32>*
  %71 = load <4 x i32>, <4 x i32>* %70, align 16, !tbaa !5
  %72 = icmp sgt <4 x i32> %63, %71
  %73 = select <4 x i1> %72, <4 x i32> %63, <4 x i32> %71
  %74 = icmp sgt <4 x i32> %62, %68
  %75 = select <4 x i1> %74, <4 x i32> %62, <4 x i32> %68
  br label %76

76:                                               ; preds = %58, %65
  %77 = phi <4 x i32> [ %59, %58 ], [ %75, %65 ]
  %78 = phi <4 x i32> [ %60, %58 ], [ %73, %65 ]
  %79 = icmp sgt <4 x i32> %77, %78
  %80 = select <4 x i1> %79, <4 x i32> %77, <4 x i32> %78
  %81 = call i32 @llvm.vector.reduce.smax.v4i32(<4 x i32> %80)
  %82 = icmp eq i64 %21, %7
  br i1 %82, label %142, label %83

83:                                               ; preds = %17, %76
  %84 = phi i64 [ 0, %17 ], [ %21, %76 ]
  %85 = phi i32 [ 0, %17 ], [ %81, %76 ]
  br label %133

86:                                               ; preds = %6, %130
  %87 = phi i64 [ 0, %6 ], [ %131, %130 ]
  %88 = getelementptr inbounds [25 x i32], [25 x i32]* @b, i64 0, i64 %87
  store i32 1, i32* %88, align 4, !tbaa !5
  %89 = icmp eq i64 %87, 0
  br i1 %89, label %130, label %90

90:                                               ; preds = %86
  %91 = getelementptr inbounds [25 x i32], [25 x i32]* @a, i64 0, i64 %87
  %92 = load i32, i32* %91, align 4, !tbaa !5
  %93 = and i64 %87, 1
  %94 = icmp eq i64 %87, 1
  br i1 %94, label %116, label %95

95:                                               ; preds = %90
  %96 = and i64 %87, 9223372036854775806
  br label %97

97:                                               ; preds = %180, %95
  %98 = phi i32 [ 1, %95 ], [ %181, %180 ]
  %99 = phi i64 [ 0, %95 ], [ %182, %180 ]
  %100 = phi i64 [ %96, %95 ], [ %183, %180 ]
  %101 = getelementptr inbounds [25 x i32], [25 x i32]* @a, i64 0, i64 %99
  %102 = load i32, i32* %101, align 8, !tbaa !5
  %103 = icmp slt i32 %102, %92
  br i1 %103, label %110, label %104

104:                                              ; preds = %97
  %105 = getelementptr inbounds [25 x i32], [25 x i32]* @b, i64 0, i64 %99
  %106 = load i32, i32* %105, align 8, !tbaa !5
  %107 = icmp slt i32 %106, %98
  br i1 %107, label %110, label %108

108:                                              ; preds = %104
  %109 = add nsw i32 %106, 1
  store i32 %109, i32* %88, align 4, !tbaa !5
  br label %110

110:                                              ; preds = %97, %108, %104
  %111 = phi i32 [ %98, %97 ], [ %109, %108 ], [ %98, %104 ]
  %112 = or i64 %99, 1
  %113 = getelementptr inbounds [25 x i32], [25 x i32]* @a, i64 0, i64 %112
  %114 = load i32, i32* %113, align 4, !tbaa !5
  %115 = icmp slt i32 %114, %92
  br i1 %115, label %180, label %174

116:                                              ; preds = %180, %90
  %117 = phi i32 [ 1, %90 ], [ %181, %180 ]
  %118 = phi i64 [ 0, %90 ], [ %182, %180 ]
  %119 = icmp eq i64 %93, 0
  br i1 %119, label %130, label %120

120:                                              ; preds = %116
  %121 = getelementptr inbounds [25 x i32], [25 x i32]* @a, i64 0, i64 %118
  %122 = load i32, i32* %121, align 4, !tbaa !5
  %123 = icmp slt i32 %122, %92
  br i1 %123, label %130, label %124

124:                                              ; preds = %120
  %125 = getelementptr inbounds [25 x i32], [25 x i32]* @b, i64 0, i64 %118
  %126 = load i32, i32* %125, align 4, !tbaa !5
  %127 = icmp slt i32 %126, %117
  br i1 %127, label %130, label %128

128:                                              ; preds = %124
  %129 = add nsw i32 %126, 1
  store i32 %129, i32* %88, align 4, !tbaa !5
  br label %130

130:                                              ; preds = %116, %120, %124, %128, %86
  %131 = add nuw nsw i64 %87, 1
  %132 = icmp eq i64 %131, %7
  br i1 %132, label %16, label %86, !llvm.loop !13

133:                                              ; preds = %83, %133
  %134 = phi i64 [ %140, %133 ], [ %84, %83 ]
  %135 = phi i32 [ %139, %133 ], [ %85, %83 ]
  %136 = getelementptr inbounds [25 x i32], [25 x i32]* @b, i64 0, i64 %134
  %137 = load i32, i32* %136, align 4, !tbaa !5
  %138 = icmp sgt i32 %135, %137
  %139 = select i1 %138, i32 %135, i32 %137
  %140 = add nuw nsw i64 %134, 1
  %141 = icmp eq i64 %140, %18
  br i1 %141, label %142, label %133, !llvm.loop !14

142:                                              ; preds = %133, %76, %4, %0, %16
  %143 = phi i32 [ 0, %16 ], [ 0, %0 ], [ 0, %4 ], [ %81, %76 ], [ %139, %133 ]
  %144 = tail call nonnull align 8 dereferenceable(8) %"class.std::basic_ostream"* @_ZNSolsEi(%"class.std::basic_ostream"* nonnull align 8 dereferenceable(8) @_ZSt4cout, i32 %143)
  %145 = bitcast %"class.std::basic_ostream"* %144 to i8**
  %146 = load i8*, i8** %145, align 8, !tbaa !16
  %147 = getelementptr i8, i8* %146, i64 -24
  %148 = bitcast i8* %147 to i64*
  %149 = load i64, i64* %148, align 8
  %150 = bitcast %"class.std::basic_ostream"* %144 to i8*
  %151 = add nsw i64 %149, 240
  %152 = getelementptr inbounds i8, i8* %150, i64 %151
  %153 = bitcast i8* %152 to %"class.std::ctype"**
  %154 = load %"class.std::ctype"*, %"class.std::ctype"** %153, align 8, !tbaa !18
  %155 = icmp eq %"class.std::ctype"* %154, null
  br i1 %155, label %156, label %157

156:                                              ; preds = %142
  tail call void @_ZSt16__throw_bad_castv() #7
  unreachable

157:                                              ; preds = %142
  %158 = getelementptr inbounds %"class.std::ctype", %"class.std::ctype"* %154, i64 0, i32 8
  %159 = load i8, i8* %158, align 8, !tbaa !22
  %160 = icmp eq i8 %159, 0
  br i1 %160, label %164, label %161

161:                                              ; preds = %157
  %162 = getelementptr inbounds %"class.std::ctype", %"class.std::ctype"* %154, i64 0, i32 9, i64 10
  %163 = load i8, i8* %162, align 1, !tbaa !24
  br label %170

164:                                              ; preds = %157
  tail call void @_ZNKSt5ctypeIcE13_M_widen_initEv(%"class.std::ctype"* nonnull align 8 dereferenceable(570) %154)
  %165 = bitcast %"class.std::ctype"* %154 to i8 (%"class.std::ctype"*, i8)***
  %166 = load i8 (%"class.std::ctype"*, i8)**, i8 (%"class.std::ctype"*, i8)*** %165, align 8, !tbaa !16
  %167 = getelementptr inbounds i8 (%"class.std::ctype"*, i8)*, i8 (%"class.std::ctype"*, i8)** %166, i64 6
  %168 = load i8 (%"class.std::ctype"*, i8)*, i8 (%"class.std::ctype"*, i8)** %167, align 8
  %169 = tail call signext i8 %168(%"class.std::ctype"* nonnull align 8 dereferenceable(570) %154, i8 signext 10)
  br label %170

170:                                              ; preds = %161, %164
  %171 = phi i8 [ %163, %161 ], [ %169, %164 ]
  %172 = tail call nonnull align 8 dereferenceable(8) %"class.std::basic_ostream"* @_ZNSo3putEc(%"class.std::basic_ostream"* nonnull align 8 dereferenceable(8) %144, i8 signext %171)
  %173 = tail call nonnull align 8 dereferenceable(8) %"class.std::basic_ostream"* @_ZNSo5flushEv(%"class.std::basic_ostream"* nonnull align 8 dereferenceable(8) %172)
  ret i32 0

174:                                              ; preds = %110
  %175 = getelementptr inbounds [25 x i32], [25 x i32]* @b, i64 0, i64 %112
  %176 = load i32, i32* %175, align 4, !tbaa !5
  %177 = icmp slt i32 %176, %111
  br i1 %177, label %180, label %178

178:                                              ; preds = %174
  %179 = add nsw i32 %176, 1
  store i32 %179, i32* %88, align 4, !tbaa !5
  br label %180

180:                                              ; preds = %178, %174, %110
  %181 = phi i32 [ %111, %110 ], [ %179, %178 ], [ %111, %174 ]
  %182 = add nuw nsw i64 %99, 2
  %183 = add i64 %100, -2
  %184 = icmp eq i64 %183, 0
  br i1 %184, label %116, label %97, !llvm.loop !25
}

declare nonnull align 8 dereferenceable(16) %"class.std::basic_istream"* @_ZNSirsERi(%"class.std::basic_istream"* nonnull align 8 dereferenceable(16), i32* nonnull align 4 dereferenceable(4)) local_unnamed_addr #0

declare nonnull align 8 dereferenceable(8) %"class.std::basic_ostream"* @_ZNSolsEi(%"class.std::basic_ostream"* nonnull align 8 dereferenceable(8), i32) local_unnamed_addr #0

declare nonnull align 8 dereferenceable(8) %"class.std::basic_ostream"* @_ZNSo3putEc(%"class.std::basic_ostream"* nonnull align 8 dereferenceable(8), i8 signext) local_unnamed_addr #0

declare nonnull align 8 dereferenceable(8) %"class.std::basic_ostream"* @_ZNSo5flushEv(%"class.std::basic_ostream"* nonnull align 8 dereferenceable(8)) local_unnamed_addr #0

; Function Attrs: noreturn
declare void @_ZSt16__throw_bad_castv() local_unnamed_addr #4

declare void @_ZNKSt5ctypeIcE13_M_widen_initEv(%"class.std::ctype"* nonnull align 8 dereferenceable(570)) local_unnamed_addr #0

; Function Attrs: sspstrong uwtable
define internal void @_GLOBAL__sub_I_114.cpp() #5 section ".text.startup" {
  tail call void @_ZNSt8ios_base4InitC1Ev(%"class.std::ios_base::Init"* nonnull align 1 dereferenceable(1) @_ZStL8__ioinit)
  %1 = tail call i32 @__cxa_atexit(void (i8*)* bitcast (void (%"class.std::ios_base::Init"*)* @_ZNSt8ios_base4InitD1Ev to void (i8*)*), i8* getelementptr inbounds (%"class.std::ios_base::Init", %"class.std::ios_base::Init"* @_ZStL8__ioinit, i64 0, i32 0), i8* nonnull @__dso_handle) #8
  ret void
}

; Function Attrs: nofree nosync nounwind readnone willreturn
declare i32 @llvm.vector.reduce.smax.v4i32(<4 x i32>) #6


!llvm.module.flags = !{!0, !1, !2, !3}
!llvm.ident = !{!4}

!0 = !{i32 1, !"wchar_size", i32 4}
!1 = !{i32 7, !"PIC Level", i32 2}
!2 = !{i32 7, !"PIE Level", i32 2}
!3 = !{i32 7, !"uwtable", i32 1}
!4 = !{!"clang version 13.0.0"}
!5 = !{!6, !6, i64 0}
!6 = !{!"int", !7, i64 0}
!7 = !{!"omnipotent char", !8, i64 0}
!8 = !{!"Simple C++ TBAA"}
!9 = distinct !{!9, !10}
!10 = !{!"llvm.loop.mustprogress"}
!11 = distinct !{!11, !10, !12}
!12 = !{!"llvm.loop.isvectorized", i32 1}
!13 = distinct !{!13, !10}
!14 = distinct !{!14, !10, !15, !12}
!15 = !{!"llvm.loop.unroll.runtime.disable"}
!16 = !{!17, !17, i64 0}
!17 = !{!"vtable pointer", !8, i64 0}
!18 = !{!19, !20, i64 240}
!19 = !{!"_ZTSSt9basic_iosIcSt11char_traitsIcEE", !20, i64 216, !7, i64 224, !21, i64 225, !20, i64 232, !20, i64 240, !20, i64 248, !20, i64 256}
!20 = !{!"any pointer", !7, i64 0}
!21 = !{!"bool", !7, i64 0}
!22 = !{!23, !7, i64 56}
!23 = !{!"_ZTSSt5ctypeIcE", !20, i64 16, !21, i64 24, !20, i64 32, !20, i64 40, !20, i64 48, !7, i64 56, !7, i64 57, !7, i64 313, !7, i64 569}
!24 = !{!7, !7, i64 0}
!25 = distinct !{!25, !10}
